target datalayout = "e-m:e-p270:32:32-p271:32:32-p272:64:64-i64:64-i128:128-f80:128-n8:16:32:64-S128"
target triple = "x86_64-pc-linux-gnu"

%struct.evhttp_uri = type { i32, ptr, ptr, ptr, i32, ptr, ptr, ptr, ptr }

@.str.46 = private unnamed_addr constant [13 x i8] c"%s: strdup()\00", align 1
@__func__.evhttp_uri_set_userinfo = private unnamed_addr constant [24 x i8] c"evhttp_uri_set_userinfo\00", align 1
@.str.165 = private unnamed_addr constant [12 x i8] c"!$&'()*+,;=\00", align 1

; Function Attrs: nounwind uwtable
define internal i32 @userinfo_ok(ptr noundef %0, ptr noundef %1) #0 {
  %3 = alloca i32, align 4
  %4 = alloca ptr, align 8
  %5 = alloca ptr, align 8
  store ptr %0, ptr %4, align 8
  store ptr %1, ptr %5, align 8
  br label %6

6:                                                ; preds = %59, %2
  %7 = load ptr, ptr %4, align 8
  %8 = load ptr, ptr %5, align 8
  %9 = icmp ult ptr %7, %8
  br i1 %9, label %10, label %60

10:                                               ; preds = %6
  %11 = load ptr, ptr %4, align 8
  %12 = load i8, ptr %11, align 1
  %13 = zext i8 %12 to i64
  %14 = getelementptr inbounds nuw [256 x i8], ptr @uri_chars, i64 0, i64 %13
  %15 = load i8, ptr %14, align 1
  %16 = sext i8 %15 to i32
  %17 = icmp ne i32 %16, 0
  br i1 %17, label %29, label %18

18:                                               ; preds = %10
  %19 = load ptr, ptr %4, align 8
  %20 = load i8, ptr %19, align 1
  %21 = sext i8 %20 to i32
  %22 = call ptr @strchr(ptr noundef @.str.165, i32 noundef %21) #12
  %23 = icmp ne ptr %22, null
  br i1 %23, label %29, label %24

24:                                               ; preds = %18
  %25 = load ptr, ptr %4, align 8
  %26 = load i8, ptr %25, align 1
  %27 = sext i8 %26 to i32
  %28 = icmp eq i32 %27, 58
  br i1 %28, label %29, label %32

29:                                               ; preds = %24, %18, %10
  %30 = load ptr, ptr %4, align 8
  %31 = getelementptr inbounds nuw i8, ptr %30, i32 1
  store ptr %31, ptr %4, align 8
  br label %59

32:                                               ; preds = %24
  %33 = load ptr, ptr %4, align 8
  %34 = load i8, ptr %33, align 1
  %35 = sext i8 %34 to i32
  %36 = icmp eq i32 %35, 37
  br i1 %36, label %37, label %57

37:                                               ; preds = %32
  %38 = load ptr, ptr %4, align 8
  %39 = getelementptr inbounds i8, ptr %38, i64 2
  %40 = load ptr, ptr %5, align 8
  %41 = icmp ult ptr %39, %40
  br i1 %41, label %42, label %57

42:                                               ; preds = %37
  %43 = load ptr, ptr %4, align 8
  %44 = getelementptr inbounds i8, ptr %43, i64 1
  %45 = load i8, ptr %44, align 1
  %46 = call i32 @EVUTIL_ISXDIGIT_(i8 noundef signext %45)
  %47 = icmp ne i32 %46, 0
  br i1 %47, label %48, label %57

48:                                               ; preds = %42
  %49 = load ptr, ptr %4, align 8
  %50 = getelementptr inbounds i8, ptr %49, i64 2
  %51 = load i8, ptr %50, align 1
  %52 = call i32 @EVUTIL_ISXDIGIT_(i8 noundef signext %51)
  %53 = icmp ne i32 %52, 0
  br i1 %53, label %54, label %57

54:                                               ; preds = %48
  %55 = load ptr, ptr %4, align 8
  %56 = getelementptr inbounds i8, ptr %55, i64 3
  store ptr %56, ptr %4, align 8
  br label %58

57:                                               ; preds = %48, %42, %37, %32
  store i32 0, ptr %3, align 4
  br label %61

58:                                               ; preds = %54
  br label %59

59:                                               ; preds = %58, %29
  br label %6, !llvm.loop !39

60:                                               ; preds = %6
  store i32 1, ptr %3, align 4
  br label %61

61:                                               ; preds = %60, %57
  %62 = load i32, ptr %3, align 4
  ret i32 %62
}

; Function Attrs: nounwind uwtable
define i32 @evhttp_uri_set_userinfo(ptr noundef %0, ptr noundef %1) #0 {
  %3 = alloca i32, align 4
  %4 = alloca ptr, align 8
  %5 = alloca ptr, align 8
  store ptr %0, ptr %4, align 8
  store ptr %1, ptr %5, align 8
  %6 = load ptr, ptr %5, align 8
  %7 = icmp ne ptr %6, null
  br i1 %7, label %8, label %17

8:                                                ; preds = %2
  %9 = load ptr, ptr %5, align 8
  %10 = load ptr, ptr %5, align 8
  %11 = load ptr, ptr %5, align 8
  %12 = call i64 @strlen(ptr noundef %11) #12
  %13 = getelementptr inbounds nuw i8, ptr %10, i64 %12
  %14 = call i32 @userinfo_ok(ptr noundef %9, ptr noundef %13)
  %15 = icmp ne i32 %14, 0
  br i1 %15, label %17, label %16

16:                                               ; preds = %8
  store i32 -1, ptr %3, align 4
  br label %43

17:                                               ; preds = %8, %2
  br label %18

18:                                               ; preds = %17
  %19 = load ptr, ptr %4, align 8
  %20 = getelementptr inbounds nuw %struct.evhttp_uri, ptr %19, i32 0, i32 2
  %21 = load ptr, ptr %20, align 8
  %22 = icmp ne ptr %21, null
  br i1 %22, label %23, label %27

23:                                               ; preds = %18
  %24 = load ptr, ptr %4, align 8
  %25 = getelementptr inbounds nuw %struct.evhttp_uri, ptr %24, i32 0, i32 2
  %26 = load ptr, ptr %25, align 8
  call void @event_mm_free_(ptr noundef %26)
  br label %27

27:                                               ; preds = %23, %18
  %28 = load ptr, ptr %5, align 8
  %29 = icmp ne ptr %28, null
  br i1 %29, label %30, label %38

30:                                               ; preds = %27
  %31 = load ptr, ptr %5, align 8
  %32 = call ptr @event_mm_strdup_(ptr noundef %31)
  %33 = load ptr, ptr %4, align 8
  %34 = getelementptr inbounds nuw %struct.evhttp_uri, ptr %33, i32 0, i32 2
  store ptr %32, ptr %34, align 8
  %35 = icmp eq ptr %32, null
  br i1 %35, label %36, label %37

36:                                               ; preds = %30
  call void (ptr, ...) @event_warn(ptr noundef @.str.46, ptr noundef @__func__.evhttp_uri_set_userinfo)
  store i32 -1, ptr %3, align 4
  br label %43

37:                                               ; preds = %30
  br label %41

38:                                               ; preds = %27
  %39 = load ptr, ptr %4, align 8
  %40 = getelementptr inbounds nuw %struct.evhttp_uri, ptr %39, i32 0, i32 2
  store ptr null, ptr %40, align 8
  br label %41

41:                                               ; preds = %38, %37
  br label %42

42:                                               ; preds = %41
  store i32 0, ptr %3, align 4
  br label %43

43:                                               ; preds = %42, %36, %16
  %44 = load i32, ptr %3, align 4
  ret i32 %44
}