; Function Attrs: nounwind uwtable
define range(i32 -1, 1) i32 @evhttp_uri_set_userinfo(ptr noundef captures(none) %0, ptr noundef %1) local_unnamed_addr #0 {
  %.not = icmp eq ptr %1, null
  br i1 %.not, label %userinfo_ok.exit, label %3

3:                                                ; preds = %2
  %4 = tail call i64 @strlen(ptr noundef nonnull dereferenceable(1) %1) #17
  %5 = getelementptr inbounds nuw i8, ptr %1, i64 %4
  %.not16 = icmp eq i64 %4, 0
  br i1 %.not16, label %userinfo_ok.exit, label %.lr.ph.i

.lr.ph.i:                                         ; preds = %3, %26
  %.01221.i = phi ptr [ %27, %26 ], [ %1, %3 ]
  %6 = load i8, ptr %.01221.i, align 1
  %7 = zext i8 %6 to i64
  %8 = getelementptr inbounds nuw [256 x i8], ptr @uri_chars, i64 0, i64 %7
  %9 = load i8, ptr %8, align 1
  %.not.i = icmp eq i8 %9, 0
  br i1 %.not.i, label %10, label %26

10:                                               ; preds = %.lr.ph.i
  %memchr.bounds.i = icmp ult i8 %6, 64
  %11 = shl nuw i64 1, %7
  %12 = and i64 %11, 2882338748320710657
  %memchr.bits.i = icmp ne i64 %12, 0
  %memchr16.not.not20.i = select i1 %memchr.bounds.i, i1 %memchr.bits.i, i1 false
  %13 = icmp eq i8 %6, 58
  %or.cond.i = or i1 %13, %memchr16.not.not20.i
  br i1 %or.cond.i, label %26, label %14

14:                                               ; preds = %10
  %15 = icmp eq i8 %6, 37
  br i1 %15, label %16, label %userinfo_ok.exit.thread

16:                                               ; preds = %14
  %17 = getelementptr inbounds nuw i8, ptr %.01221.i, i64 2
  %18 = icmp ult ptr %17, %5
  br i1 %18, label %19, label %userinfo_ok.exit.thread

19:                                               ; preds = %16
  %20 = getelementptr inbounds nuw i8, ptr %.01221.i, i64 1
  %21 = load i8, ptr %20, align 1
  %22 = tail call i32 @EVUTIL_ISXDIGIT_(i8 noundef signext %21) #18
  %.not18.i = icmp eq i32 %22, 0
  br i1 %.not18.i, label %userinfo_ok.exit.thread, label %23

23:                                               ; preds = %19
  %24 = load i8, ptr %17, align 1
  %25 = tail call i32 @EVUTIL_ISXDIGIT_(i8 noundef signext %24) #18
  %.not19.i = icmp eq i32 %25, 0
  br i1 %.not19.i, label %userinfo_ok.exit.thread, label %26

26:                                               ; preds = %23, %10, %.lr.ph.i
  %.sink.i = phi i64 [ 1, %10 ], [ 1, %.lr.ph.i ], [ 3, %23 ]
  %27 = getelementptr inbounds nuw i8, ptr %.01221.i, i64 %.sink.i
  %28 = icmp ult ptr %27, %5
  br i1 %28, label %.lr.ph.i, label %userinfo_ok.exit, !llvm.loop !35

userinfo_ok.exit:                                 ; preds = %26, %3, %2
  %29 = getelementptr inbounds nuw i8, ptr %0, i64 16
  %30 = load ptr, ptr %29, align 8
  %.not13 = icmp eq ptr %30, null
  br i1 %.not13, label %32, label %31

31:                                               ; preds = %userinfo_ok.exit
  tail call void @event_mm_free_(ptr noundef nonnull %30) #18
  br label %32

32:                                               ; preds = %31, %userinfo_ok.exit
  br i1 %.not, label %37, label %33

33:                                               ; preds = %32
  %34 = tail call ptr @event_mm_strdup_(ptr noundef nonnull %1) #18
  store ptr %34, ptr %29, align 8
  %35 = icmp eq ptr %34, null
  br i1 %35, label %36, label %userinfo_ok.exit.thread

36:                                               ; preds = %33
  tail call void (ptr, ...) @event_warn(ptr noundef nonnull @.str.46, ptr noundef nonnull @__func__.evhttp_uri_set_userinfo) #18
  br label %userinfo_ok.exit.thread

37:                                               ; preds = %32
  store ptr null, ptr %29, align 8
  br label %userinfo_ok.exit.thread

userinfo_ok.exit.thread:                          ; preds = %23, %19, %16, %14, %33, %37, %36
  %.0 = phi i32 [ -1, %36 ], [ 0, %37 ], [ 0, %33 ], [ -1, %14 ], [ -1, %16 ], [ -1, %19 ], [ -1, %23 ]
  ret i32 %.0
}